ARM GAS  C:\Users\duver\AppData\Local\Temp\ccOov97v.s 			page 1


   1              		.syntax unified
   2              		.cpu cortex-m3
   3              		.fpu softvfp
   4              		.eabi_attribute 20, 1
   5              		.eabi_attribute 21, 1
   6              		.eabi_attribute 23, 3
   7              		.eabi_attribute 24, 1
   8              		.eabi_attribute 25, 1
   9              		.eabi_attribute 26, 1
  10              		.eabi_attribute 30, 1
  11              		.eabi_attribute 34, 1
  12              		.eabi_attribute 18, 4
  13              		.thumb
  14              		.syntax unified
  15              		.file	"main.c"
  16              		.text
  17              	.Ltext0:
  18              		.cfi_sections	.debug_frame
  19              		.section	.text.printToLCD,"ax",%progbits
  20              		.align	2
  21              		.global	printToLCD
  22              		.thumb
  23              		.thumb_func
  24              		.type	printToLCD, %function
  25              	printToLCD:
  26              	.LFB64:
  27              		.file 1 "main.c"
   1:main.c        **** /* ========================================
   2:main.c        ****  *
   3:main.c        ****  * PSoc Thermistor
   4:main.c        ****  * Amatherm 1DC103K-EC NTC thermistor interfaced to PSoC51p
   5:main.c        ****  * Temperature reported on LCD character screen
   6:main.c        ****  * Brian DuVerneay
   7:main.c        ****  *
   8:main.c        ****  * ========================================
   9:main.c        **** */
  10:main.c        **** #include "project.h"
  11:main.c        **** #include "math.h"
  12:main.c        **** #include "float.h"
  13:main.c        **** 
  14:main.c        **** void printToLCD();
  15:main.c        **** 
  16:main.c        **** uint32 loop_counter, LCD_write_counter, thermistor_R;
  17:main.c        **** uint16 R_1_result, thermistor_result;
  18:main.c        **** int16 thermistor_mV, R_1_mV, temperature;
  19:main.c        **** uint8 tempDAC;
  20:main.c        **** float R_1_result_f, R_1_mV_f, thermistor_mV_f, ratio_f, voltage_f;
  21:main.c        **** float thermistor_RA_f, thermistor_RB_f;
  22:main.c        **** float current_mA_f, temperature_K_f;
  23:main.c        **** 
  24:main.c        **** int main(void)
  25:main.c        **** {
  26:main.c        ****     CyGlobalIntEnable; /* Enable global interrupts. */
  27:main.c        ****     
  28:main.c        ****     // Power on ADC and Mux
  29:main.c        ****     ADC_DelSig_1_Start();
  30:main.c        ****     AMux_1_Start();
ARM GAS  C:\Users\duver\AppData\Local\Temp\ccOov97v.s 			page 2


  31:main.c        ****     
  32:main.c        ****     // LCD power on and setup
  33:main.c        ****     LCD_Start();
  34:main.c        ****     LCD_Position(0,0);
  35:main.c        ****     LCD_PrintString("Thermistor Test");
  36:main.c        ****     
  37:main.c        ****     CyDelay(1000);
  38:main.c        ****     LCD_Position(0,0);
  39:main.c        ****     LCD_ClearDisplay();
  40:main.c        ****     
  41:main.c        ****     DAC_Start();
  42:main.c        ****     
  43:main.c        ****     while(1)
  44:main.c        ****     {
  45:main.c        ****         loop_counter++;
  46:main.c        ****         LCD_write_counter++;
  47:main.c        ****         
  48:main.c        ****         // measure loop time on P0[1]
  49:main.c        ****         P0_1_Write(1);
  50:main.c        ****         
  51:main.c        ****         //AMux_1_Select(0);
  52:main.c        ****         AMux_1_Select(1);
  53:main.c        ****         ADC_DelSig_1_StartConvert();
  54:main.c        ****         ADC_DelSig_1_IsEndConversion(ADC_DelSig_1_WAIT_FOR_RESULT);
  55:main.c        ****         
  56:main.c        ****         // time to start 
  57:main.c        ****         P0_1_Write(0);
  58:main.c        ****         
  59:main.c        ****         // Get voltage and current for 10k resistor
  60:main.c        ****         R_1_result = ADC_DelSig_1_GetResult16();
  61:main.c        ****         R_1_result_f = (float) R_1_result;
  62:main.c        ****         
  63:main.c        ****         R_1_mV = (int16) ADC_DelSig_1_CountsTo_mVolts(R_1_result);
  64:main.c        ****         R_1_mV_f = (float) R_1_mV;
  65:main.c        ****         
  66:main.c        ****         // If I don't add a delay here it doesn't work
  67:main.c        ****         CyDelay(1);
  68:main.c        ****         
  69:main.c        ****         current_mA_f = R_1_mV_f / 10000.;
  70:main.c        ****         
  71:main.c        ****         AMux_1_Select(0);
  72:main.c        ****         ADC_DelSig_1_IsEndConversion(ADC_DelSig_1_WAIT_FOR_RESULT);
  73:main.c        ****         thermistor_result = ADC_DelSig_1_GetResult16();
  74:main.c        ****         
  75:main.c        ****         thermistor_mV = (int16) ADC_DelSig_1_CountsTo_mVolts(thermistor_result);
  76:main.c        ****         thermistor_mV_f = (float) thermistor_mV;
  77:main.c        ****                     
  78:main.c        ****         thermistor_RA_f = thermistor_mV_f / current_mA_f;
  79:main.c        ****         
  80:main.c        ****         thermistor_R = Thermistor_1_GetResistance(R_1_mV, thermistor_mV);
  81:main.c        ****         thermistor_RB_f = (float) thermistor_R;
  82:main.c        ****         
  83:main.c        ****         temperature = Thermistor_1_GetTemperature(thermistor_R);
  84:main.c        ****         
  85:main.c        ****         //Min temp = 1000 (10C), Max temp = (40C)
  86:main.c        ****         tempDAC = (uint8) ((temperature - 1000) * (256 - 0) / (4000 - 1000) + 0);
  87:main.c        **** 
ARM GAS  C:\Users\duver\AppData\Local\Temp\ccOov97v.s 			page 3


  88:main.c        ****         DAC_SetValue(tempDAC);
  89:main.c        ****         
  90:main.c        ****         if ( LCD_write_counter++ > 100) {
  91:main.c        ****             printToLCD();
  92:main.c        ****         }
  93:main.c        ****     }
  94:main.c        **** }
  95:main.c        **** void printToLCD () {
  28              		.loc 1 95 0
  29              		.cfi_startproc
  30              		@ args = 0, pretend = 0, frame = 0
  31              		@ frame_needed = 0, uses_anonymous_args = 0
  32 0000 70B5     		push	{r4, r5, r6, lr}
  33              		.cfi_def_cfa_offset 16
  34              		.cfi_offset 4, -16
  35              		.cfi_offset 5, -12
  36              		.cfi_offset 6, -8
  37              		.cfi_offset 14, -4
  96:main.c        ****     LCD_write_counter = 0;
  38              		.loc 1 96 0
  39 0002 0024     		movs	r4, #0
  40 0004 224B     		ldr	r3, .L3
  41 0006 1C60     		str	r4, [r3]
  97:main.c        ****     P0_0_Write(1);
  42              		.loc 1 97 0
  43 0008 0120     		movs	r0, #1
  44 000a FFF7FEFF 		bl	P0_0_Write
  45              	.LVL0:
  98:main.c        ****     LCD_IsReady();
  46              		.loc 1 98 0
  47 000e FFF7FEFF 		bl	LCD_IsReady
  48              	.LVL1:
  99:main.c        ****     LCD_Position(0,0);
  49              		.loc 1 99 0
  50 0012 2146     		mov	r1, r4
  51 0014 2046     		mov	r0, r4
  52 0016 FFF7FEFF 		bl	LCD_Position
  53              	.LVL2:
 100:main.c        ****     LCD_PrintString("loop cnt:");
  54              		.loc 1 100 0
  55 001a 1E48     		ldr	r0, .L3+4
  56 001c FFF7FEFF 		bl	LCD_PrintString
  57              	.LVL3:
 101:main.c        ****     LCD_Position(0, 10);
  58              		.loc 1 101 0
  59 0020 0A21     		movs	r1, #10
  60 0022 2046     		mov	r0, r4
  61 0024 FFF7FEFF 		bl	LCD_Position
  62              	.LVL4:
 102:main.c        ****     LCD_PrintU32Number(loop_counter);
  63              		.loc 1 102 0
  64 0028 1B4B     		ldr	r3, .L3+8
  65 002a 1868     		ldr	r0, [r3]
  66 002c FFF7FEFF 		bl	LCD_PrintU32Number
  67              	.LVL5:
 103:main.c        ****     LCD_Position(1,6);
  68              		.loc 1 103 0
ARM GAS  C:\Users\duver\AppData\Local\Temp\ccOov97v.s 			page 4


  69 0030 0621     		movs	r1, #6
  70 0032 0120     		movs	r0, #1
  71 0034 FFF7FEFF 		bl	LCD_Position
  72              	.LVL6:
 104:main.c        ****     
 105:main.c        ****     LCD_PrintString("degrees ");
  73              		.loc 1 105 0
  74 0038 1848     		ldr	r0, .L3+12
  75 003a FFF7FEFF 		bl	LCD_PrintString
  76              	.LVL7:
 106:main.c        ****     LCD_Position(1,0);
  77              		.loc 1 106 0
  78 003e 2146     		mov	r1, r4
  79 0040 0120     		movs	r0, #1
  80 0042 FFF7FEFF 		bl	LCD_Position
  81              	.LVL8:
 107:main.c        ****     LCD_PrintNumber(temperature / 100);
  82              		.loc 1 107 0
  83 0046 164E     		ldr	r6, .L3+16
  84 0048 B6F90030 		ldrsh	r3, [r6]
  85 004c 154D     		ldr	r5, .L3+20
  86 004e 85FB0320 		smull	r2, r0, r5, r3
  87 0052 DB17     		asrs	r3, r3, #31
  88 0054 C3EB6010 		rsb	r0, r3, r0, asr #5
  89 0058 80B2     		uxth	r0, r0
  90 005a FFF7FEFF 		bl	LCD_PrintU32Number
  91              	.LVL9:
 108:main.c        ****     LCD_Position(1,2);
  92              		.loc 1 108 0
  93 005e 0221     		movs	r1, #2
  94 0060 0120     		movs	r0, #1
  95 0062 FFF7FEFF 		bl	LCD_Position
  96              	.LVL10:
 109:main.c        ****     LCD_PrintString(".");
  97              		.loc 1 109 0
  98 0066 1048     		ldr	r0, .L3+24
  99 0068 FFF7FEFF 		bl	LCD_PrintString
 100              	.LVL11:
 110:main.c        ****     LCD_PrintNumber(temperature % 100);
 101              		.loc 1 110 0
 102 006c B6F90020 		ldrsh	r2, [r6]
 103 0070 85FB0235 		smull	r3, r5, r5, r2
 104 0074 D317     		asrs	r3, r2, #31
 105 0076 C3EB6513 		rsb	r3, r3, r5, asr #5
 106 007a 6420     		movs	r0, #100
 107 007c 00FB1320 		mls	r0, r0, r3, r2
 108 0080 80B2     		uxth	r0, r0
 109 0082 FFF7FEFF 		bl	LCD_PrintU32Number
 110              	.LVL12:
 111:main.c        ****     P0_0_Write(0);
 111              		.loc 1 111 0
 112 0086 2046     		mov	r0, r4
 113 0088 FFF7FEFF 		bl	P0_0_Write
 114              	.LVL13:
 115 008c 70BD     		pop	{r4, r5, r6, pc}
 116              	.L4:
 117 008e 00BF     		.align	2
ARM GAS  C:\Users\duver\AppData\Local\Temp\ccOov97v.s 			page 5


 118              	.L3:
 119 0090 00000000 		.word	LCD_write_counter
 120 0094 00000000 		.word	.LC0
 121 0098 00000000 		.word	loop_counter
 122 009c 0C000000 		.word	.LC1
 123 00a0 00000000 		.word	temperature
 124 00a4 1F85EB51 		.word	1374389535
 125 00a8 18000000 		.word	.LC2
 126              		.cfi_endproc
 127              	.LFE64:
 128              		.size	printToLCD, .-printToLCD
 129              		.global	__aeabi_ui2f
 130              		.global	__aeabi_i2f
 131              		.global	__aeabi_fdiv
 132              		.section	.text.main,"ax",%progbits
 133              		.align	2
 134              		.global	main
 135              		.thumb
 136              		.thumb_func
 137              		.type	main, %function
 138              	main:
 139              	.LFB63:
  25:main.c        ****     CyGlobalIntEnable; /* Enable global interrupts. */
 140              		.loc 1 25 0
 141              		.cfi_startproc
 142              		@ Volatile: function does not return.
 143              		@ args = 0, pretend = 0, frame = 0
 144              		@ frame_needed = 0, uses_anonymous_args = 0
 145 0000 80B5     		push	{r7, lr}
 146              		.cfi_def_cfa_offset 8
 147              		.cfi_offset 7, -8
 148              		.cfi_offset 14, -4
  26:main.c        ****     
 149              		.loc 1 26 0
 150              		.syntax unified
 151              	@ 26 "main.c" 1
 152 0002 62B6     		CPSIE   i
 153              	@ 0 "" 2
  29:main.c        ****     AMux_1_Start();
 154              		.loc 1 29 0
 155              		.thumb
 156              		.syntax unified
 157 0004 FFF7FEFF 		bl	ADC_DelSig_1_Start
 158              	.LVL14:
  30:main.c        ****     
 159              		.loc 1 30 0
 160 0008 FFF7FEFF 		bl	AMux_1_Start
 161              	.LVL15:
  33:main.c        ****     LCD_Position(0,0);
 162              		.loc 1 33 0
 163 000c FFF7FEFF 		bl	LCD_Start
 164              	.LVL16:
  34:main.c        ****     LCD_PrintString("Thermistor Test");
 165              		.loc 1 34 0
 166 0010 0021     		movs	r1, #0
 167 0012 0846     		mov	r0, r1
 168 0014 FFF7FEFF 		bl	LCD_Position
ARM GAS  C:\Users\duver\AppData\Local\Temp\ccOov97v.s 			page 6


 169              	.LVL17:
  35:main.c        ****     
 170              		.loc 1 35 0
 171 0018 4048     		ldr	r0, .L9
 172 001a FFF7FEFF 		bl	LCD_PrintString
 173              	.LVL18:
  37:main.c        ****     LCD_Position(0,0);
 174              		.loc 1 37 0
 175 001e 4FF47A70 		mov	r0, #1000
 176 0022 FFF7FEFF 		bl	CyDelay
 177              	.LVL19:
  38:main.c        ****     LCD_ClearDisplay();
 178              		.loc 1 38 0
 179 0026 0021     		movs	r1, #0
 180 0028 0846     		mov	r0, r1
 181 002a FFF7FEFF 		bl	LCD_Position
 182              	.LVL20:
  39:main.c        ****     
 183              		.loc 1 39 0
 184 002e 0120     		movs	r0, #1
 185 0030 FFF7FEFF 		bl	LCD_WriteControl
 186              	.LVL21:
  41:main.c        ****     
 187              		.loc 1 41 0
 188 0034 FFF7FEFF 		bl	DAC_Start
 189              	.LVL22:
 190              	.L6:
  45:main.c        ****         LCD_write_counter++;
 191              		.loc 1 45 0
 192 0038 394A     		ldr	r2, .L9+4
 193 003a 1368     		ldr	r3, [r2]
 194 003c 0133     		adds	r3, r3, #1
 195 003e 1360     		str	r3, [r2]
  46:main.c        ****         
 196              		.loc 1 46 0
 197 0040 384C     		ldr	r4, .L9+8
 198 0042 2368     		ldr	r3, [r4]
 199 0044 0133     		adds	r3, r3, #1
 200 0046 2360     		str	r3, [r4]
  49:main.c        ****         
 201              		.loc 1 49 0
 202 0048 0120     		movs	r0, #1
 203 004a FFF7FEFF 		bl	P0_1_Write
 204              	.LVL23:
  52:main.c        ****         ADC_DelSig_1_StartConvert();
 205              		.loc 1 52 0
 206 004e 0120     		movs	r0, #1
 207 0050 FFF7FEFF 		bl	AMux_1_Select
 208              	.LVL24:
  53:main.c        ****         ADC_DelSig_1_IsEndConversion(ADC_DelSig_1_WAIT_FOR_RESULT);
 209              		.loc 1 53 0
 210 0054 FFF7FEFF 		bl	ADC_DelSig_1_StartConvert
 211              	.LVL25:
  54:main.c        ****         
 212              		.loc 1 54 0
 213 0058 0020     		movs	r0, #0
 214 005a FFF7FEFF 		bl	ADC_DelSig_1_IsEndConversion
ARM GAS  C:\Users\duver\AppData\Local\Temp\ccOov97v.s 			page 7


 215              	.LVL26:
  57:main.c        ****         
 216              		.loc 1 57 0
 217 005e 0020     		movs	r0, #0
 218 0060 FFF7FEFF 		bl	P0_1_Write
 219              	.LVL27:
  60:main.c        ****         R_1_result_f = (float) R_1_result;
 220              		.loc 1 60 0
 221 0064 FFF7FEFF 		bl	ADC_DelSig_1_GetResult16
 222              	.LVL28:
 223 0068 85B2     		uxth	r5, r0
 224 006a 2F4B     		ldr	r3, .L9+12
 225 006c 1D80     		strh	r5, [r3]	@ movhi
  61:main.c        ****         
 226              		.loc 1 61 0
 227 006e 2846     		mov	r0, r5
 228 0070 FFF7FEFF 		bl	__aeabi_ui2f
 229              	.LVL29:
 230 0074 2D4B     		ldr	r3, .L9+16
 231 0076 1860     		str	r0, [r3]	@ float
  63:main.c        ****         R_1_mV_f = (float) R_1_mV;
 232              		.loc 1 63 0
 233 0078 2846     		mov	r0, r5
 234 007a FFF7FEFF 		bl	ADC_DelSig_1_CountsTo_mVolts
 235              	.LVL30:
 236 007e 2C4D     		ldr	r5, .L9+20
 237 0080 2880     		strh	r0, [r5]	@ movhi
  64:main.c        ****         
 238              		.loc 1 64 0
 239 0082 FFF7FEFF 		bl	__aeabi_i2f
 240              	.LVL31:
 241 0086 2B4E     		ldr	r6, .L9+24
 242 0088 3060     		str	r0, [r6]	@ float
  67:main.c        ****         
 243              		.loc 1 67 0
 244 008a 0120     		movs	r0, #1
 245 008c FFF7FEFF 		bl	CyDelay
 246              	.LVL32:
  69:main.c        ****         
 247              		.loc 1 69 0
 248 0090 294F     		ldr	r7, .L9+28
 249 0092 2A49     		ldr	r1, .L9+32
 250 0094 3068     		ldr	r0, [r6]	@ float
 251 0096 FFF7FEFF 		bl	__aeabi_fdiv
 252              	.LVL33:
 253 009a 3860     		str	r0, [r7]	@ float
  71:main.c        ****         ADC_DelSig_1_IsEndConversion(ADC_DelSig_1_WAIT_FOR_RESULT);
 254              		.loc 1 71 0
 255 009c 0020     		movs	r0, #0
 256 009e FFF7FEFF 		bl	AMux_1_Select
 257              	.LVL34:
  72:main.c        ****         thermistor_result = ADC_DelSig_1_GetResult16();
 258              		.loc 1 72 0
 259 00a2 0020     		movs	r0, #0
 260 00a4 FFF7FEFF 		bl	ADC_DelSig_1_IsEndConversion
 261              	.LVL35:
  73:main.c        ****         
ARM GAS  C:\Users\duver\AppData\Local\Temp\ccOov97v.s 			page 8


 262              		.loc 1 73 0
 263 00a8 FFF7FEFF 		bl	ADC_DelSig_1_GetResult16
 264              	.LVL36:
 265 00ac 80B2     		uxth	r0, r0
 266 00ae 244B     		ldr	r3, .L9+36
 267 00b0 1880     		strh	r0, [r3]	@ movhi
  75:main.c        ****         thermistor_mV_f = (float) thermistor_mV;
 268              		.loc 1 75 0
 269 00b2 FFF7FEFF 		bl	ADC_DelSig_1_CountsTo_mVolts
 270              	.LVL37:
 271 00b6 0646     		mov	r6, r0
 272 00b8 224B     		ldr	r3, .L9+40
 273 00ba 1880     		strh	r0, [r3]	@ movhi
  76:main.c        ****                     
 274              		.loc 1 76 0
 275 00bc FFF7FEFF 		bl	__aeabi_i2f
 276              	.LVL38:
 277 00c0 214B     		ldr	r3, .L9+44
 278 00c2 1860     		str	r0, [r3]	@ float
  78:main.c        ****         
 279              		.loc 1 78 0
 280 00c4 3968     		ldr	r1, [r7]	@ float
 281 00c6 FFF7FEFF 		bl	__aeabi_fdiv
 282              	.LVL39:
 283 00ca 204B     		ldr	r3, .L9+48
 284 00cc 1860     		str	r0, [r3]	@ float
  80:main.c        ****         thermistor_RB_f = (float) thermistor_R;
 285              		.loc 1 80 0
 286 00ce 3146     		mov	r1, r6
 287 00d0 B5F90000 		ldrsh	r0, [r5]
 288 00d4 FFF7FEFF 		bl	Thermistor_1_GetResistance
 289              	.LVL40:
 290 00d8 0546     		mov	r5, r0
 291 00da 1D4B     		ldr	r3, .L9+52
 292 00dc 1860     		str	r0, [r3]
  81:main.c        ****         
 293              		.loc 1 81 0
 294 00de FFF7FEFF 		bl	__aeabi_ui2f
 295              	.LVL41:
 296 00e2 1C4B     		ldr	r3, .L9+56
 297 00e4 1860     		str	r0, [r3]	@ float
  83:main.c        ****         
 298              		.loc 1 83 0
 299 00e6 2846     		mov	r0, r5
 300 00e8 FFF7FEFF 		bl	Thermistor_1_GetTemperature
 301              	.LVL42:
 302 00ec 1A4B     		ldr	r3, .L9+60
 303 00ee 1880     		strh	r0, [r3]	@ movhi
  86:main.c        **** 
 304              		.loc 1 86 0
 305 00f0 A0F57A70 		sub	r0, r0, #1000
 306 00f4 0302     		lsls	r3, r0, #8
 307 00f6 1948     		ldr	r0, .L9+64
 308 00f8 80FB0320 		smull	r2, r0, r0, r3
 309 00fc DB17     		asrs	r3, r3, #31
 310 00fe C3EBA010 		rsb	r0, r3, r0, asr #6
 311 0102 C0B2     		uxtb	r0, r0
ARM GAS  C:\Users\duver\AppData\Local\Temp\ccOov97v.s 			page 9


 312 0104 164B     		ldr	r3, .L9+68
 313 0106 1870     		strb	r0, [r3]
  88:main.c        ****         
 314              		.loc 1 88 0
 315 0108 FFF7FEFF 		bl	DAC_SetValue
 316              	.LVL43:
  90:main.c        ****             printToLCD();
 317              		.loc 1 90 0
 318 010c 2368     		ldr	r3, [r4]
 319 010e 5A1C     		adds	r2, r3, #1
 320 0110 2260     		str	r2, [r4]
 321 0112 642B     		cmp	r3, #100
 322 0114 90D9     		bls	.L6
  91:main.c        ****         }
 323              		.loc 1 91 0
 324 0116 FFF7FEFF 		bl	printToLCD
 325              	.LVL44:
 326 011a 8DE7     		b	.L6
 327              	.L10:
 328              		.align	2
 329              	.L9:
 330 011c 1C000000 		.word	.LC3
 331 0120 00000000 		.word	loop_counter
 332 0124 00000000 		.word	LCD_write_counter
 333 0128 00000000 		.word	R_1_result
 334 012c 00000000 		.word	R_1_result_f
 335 0130 00000000 		.word	R_1_mV
 336 0134 00000000 		.word	R_1_mV_f
 337 0138 00000000 		.word	current_mA_f
 338 013c 00401C46 		.word	1176256512
 339 0140 00000000 		.word	thermistor_result
 340 0144 00000000 		.word	thermistor_mV
 341 0148 00000000 		.word	thermistor_mV_f
 342 014c 00000000 		.word	thermistor_RA_f
 343 0150 00000000 		.word	thermistor_R
 344 0154 00000000 		.word	thermistor_RB_f
 345 0158 00000000 		.word	temperature
 346 015c F1197605 		.word	91625969
 347 0160 00000000 		.word	tempDAC
 348              		.cfi_endproc
 349              	.LFE63:
 350              		.size	main, .-main
 351              		.comm	temperature_K_f,4,4
 352              		.comm	current_mA_f,4,4
 353              		.comm	thermistor_RB_f,4,4
 354              		.comm	thermistor_RA_f,4,4
 355              		.comm	voltage_f,4,4
 356              		.comm	ratio_f,4,4
 357              		.comm	thermistor_mV_f,4,4
 358              		.comm	R_1_mV_f,4,4
 359              		.comm	R_1_result_f,4,4
 360              		.comm	tempDAC,1,1
 361              		.comm	temperature,2,2
 362              		.comm	R_1_mV,2,2
 363              		.comm	thermistor_mV,2,2
 364              		.comm	thermistor_result,2,2
 365              		.comm	R_1_result,2,2
ARM GAS  C:\Users\duver\AppData\Local\Temp\ccOov97v.s 			page 10


 366              		.comm	thermistor_R,4,4
 367              		.comm	LCD_write_counter,4,4
 368              		.comm	loop_counter,4,4
 369              		.section	.rodata.str1.4,"aMS",%progbits,1
 370              		.align	2
 371              	.LC0:
 372 0000 6C6F6F70 		.ascii	"loop cnt:\000"
 372      20636E74 
 372      3A00
 373 000a 0000     		.space	2
 374              	.LC1:
 375 000c 64656772 		.ascii	"degrees \000"
 375      65657320 
 375      00
 376 0015 000000   		.space	3
 377              	.LC2:
 378 0018 2E00     		.ascii	".\000"
 379 001a 0000     		.space	2
 380              	.LC3:
 381 001c 54686572 		.ascii	"Thermistor Test\000"
 381      6D697374 
 381      6F722054 
 381      65737400 
 382              		.text
 383              	.Letext0:
 384              		.file 2 "c:\\program files (x86)\\cypress\\psoc creator\\4.3\\psoc creator\\import\\gnu\\arm\\5.4.
 385              		.file 3 "c:\\program files (x86)\\cypress\\psoc creator\\4.3\\psoc creator\\import\\gnu\\arm\\5.4.
 386              		.file 4 "Generated_Source\\PSoC5/cytypes.h"
 387              		.file 5 "Generated_Source\\PSoC5/core_cm3.h"
 388              		.file 6 "Generated_Source\\PSoC5/P0_0.h"
 389              		.file 7 "Generated_Source\\PSoC5/LCD.h"
 390              		.file 8 "Generated_Source\\PSoC5/ADC_DelSig_1.h"
 391              		.file 9 "Generated_Source\\PSoC5/AMux_1.h"
 392              		.file 10 "Generated_Source\\PSoC5/CyLib.h"
 393              		.file 11 "Generated_Source\\PSoC5/DAC.h"
 394              		.file 12 "Generated_Source\\PSoC5/P0_1.h"
 395              		.file 13 "Generated_Source\\PSoC5/Thermistor_1.h"